target datalayout = "e-m:e-p270:32:32-p271:32:32-p272:64:64-i64:64-i128:128-f80:128-n8:16:32:64-S128"
target triple = "x86_64-pc-linux-gnu"

%struct.Vector2 = type { float, float }

; Function Attrs: nounwind uwtable
define <2 x float> @GetSplinePointBezierCubic(<2 x float> %0, <2 x float> %1, <2 x float> %2, <2 x float> %3, float noundef %4) #0 {
  %6 = alloca %struct.Vector2, align 4
  %7 = alloca %struct.Vector2, align 4
  %8 = alloca %struct.Vector2, align 4
  %9 = alloca %struct.Vector2, align 4
  %10 = alloca %struct.Vector2, align 4
  %11 = alloca float, align 4
  %12 = alloca float, align 4
  %13 = alloca float, align 4
  %14 = alloca float, align 4
  %15 = alloca float, align 4
  store <2 x float> %0, ptr %7, align 4
  store <2 x float> %1, ptr %8, align 4
  store <2 x float> %2, ptr %9, align 4
  store <2 x float> %3, ptr %10, align 4
  store float %4, ptr %11, align 4
  call void @llvm.memset.p0.i64(ptr align 4 %6, i8 0, i64 8, i1 false)
  call void @llvm.lifetime.start.p0(i64 4, ptr %12) #8
  %16 = load float, ptr %11, align 4
  %17 = fsub float 1.000000e+00, %16
  %18 = call float @powf(float noundef %17, float noundef 3.000000e+00) #8
  store float %18, ptr %12, align 4
  call void @llvm.lifetime.start.p0(i64 4, ptr %13) #8
  %19 = load float, ptr %11, align 4
  %20 = fsub float 1.000000e+00, %19
  %21 = call float @powf(float noundef %20, float noundef 2.000000e+00) #8
  %22 = fmul float 3.000000e+00, %21
  %23 = load float, ptr %11, align 4
  %24 = fmul float %22, %23
  store float %24, ptr %13, align 4
  call void @llvm.lifetime.start.p0(i64 4, ptr %14) #8
  %25 = load float, ptr %11, align 4
  %26 = fsub float 1.000000e+00, %25
  %27 = fmul float 3.000000e+00, %26
  %28 = load float, ptr %11, align 4
  %29 = call float @powf(float noundef %28, float noundef 2.000000e+00) #8
  %30 = fmul float %27, %29
  store float %30, ptr %14, align 4
  call void @llvm.lifetime.start.p0(i64 4, ptr %15) #8
  %31 = load float, ptr %11, align 4
  %32 = call float @powf(float noundef %31, float noundef 3.000000e+00) #8
  store float %32, ptr %15, align 4
  %33 = load float, ptr %12, align 4
  %34 = getelementptr inbounds nuw %struct.Vector2, ptr %7, i32 0, i32 1
  %35 = load float, ptr %34, align 4
  %36 = load float, ptr %13, align 4
  %37 = getelementptr inbounds nuw %struct.Vector2, ptr %8, i32 0, i32 1
  %38 = load float, ptr %37, align 4
  %39 = fmul float %36, %38
  %40 = call float @llvm.fmuladd.f32(float %33, float %35, float %39)
  %41 = load float, ptr %14, align 4
  %42 = getelementptr inbounds nuw %struct.Vector2, ptr %9, i32 0, i32 1
  %43 = load float, ptr %42, align 4
  %44 = call float @llvm.fmuladd.f32(float %41, float %43, float %40)
  %45 = load float, ptr %15, align 4
  %46 = getelementptr inbounds nuw %struct.Vector2, ptr %10, i32 0, i32 1
  %47 = load float, ptr %46, align 4
  %48 = call float @llvm.fmuladd.f32(float %45, float %47, float %44)
  %49 = getelementptr inbounds nuw %struct.Vector2, ptr %6, i32 0, i32 1
  store float %48, ptr %49, align 4
  %50 = load float, ptr %12, align 4
  %51 = getelementptr inbounds nuw %struct.Vector2, ptr %7, i32 0, i32 0
  %52 = load float, ptr %51, align 4
  %53 = load float, ptr %13, align 4
  %54 = getelementptr inbounds nuw %struct.Vector2, ptr %8, i32 0, i32 0
  %55 = load float, ptr %54, align 4
  %56 = fmul float %53, %55
  %57 = call float @llvm.fmuladd.f32(float %50, float %52, float %56)
  %58 = load float, ptr %14, align 4
  %59 = getelementptr inbounds nuw %struct.Vector2, ptr %9, i32 0, i32 0
  %60 = load float, ptr %59, align 4
  %61 = call float @llvm.fmuladd.f32(float %58, float %60, float %57)
  %62 = load float, ptr %15, align 4
  %63 = getelementptr inbounds nuw %struct.Vector2, ptr %10, i32 0, i32 0
  %64 = load float, ptr %63, align 4
  %65 = call float @llvm.fmuladd.f32(float %62, float %64, float %61)
  %66 = getelementptr inbounds nuw %struct.Vector2, ptr %6, i32 0, i32 0
  store float %65, ptr %66, align 4
  call void @llvm.lifetime.end.p0(i64 4, ptr %15) #8
  call void @llvm.lifetime.end.p0(i64 4, ptr %14) #8
  call void @llvm.lifetime.end.p0(i64 4, ptr %13) #8
  call void @llvm.lifetime.end.p0(i64 4, ptr %12) #8
  %67 = load <2 x float>, ptr %6, align 4
  ret <2 x float> %67
}