; Function Attrs: mustprogress nofree nounwind willreturn memory(write) uwtable
define <2 x float> @GetSplinePointBezierCubic(<2 x float> %0, <2 x float> %1, <2 x float> %2, <2 x float> %3, float noundef %4) local_unnamed_addr #12 {
  %6 = fsub float 1.000000e+00, %4
  %7 = tail call float @powf(float noundef %6, float noundef 3.000000e+00) #16
  %square = fmul float %6, %6
  %8 = fmul float %square, 3.000000e+00
  %9 = fmul float %4, %8
  %10 = fmul float %6, 3.000000e+00
  %square19 = fmul float %4, %4
  %11 = fmul float %square19, %10
  %12 = tail call float @powf(float noundef %4, float noundef 3.000000e+00) #16
  %.sroa.016.4.vec.extract = extractelement <2 x float> %0, i64 1
  %.sroa.015.4.vec.extract = extractelement <2 x float> %1, i64 1
  %13 = fmul float %.sroa.015.4.vec.extract, %9
  %14 = tail call float @llvm.fmuladd.f32(float %7, float %.sroa.016.4.vec.extract, float %13)
  %.sroa.014.4.vec.extract = extractelement <2 x float> %2, i64 1
  %15 = tail call float @llvm.fmuladd.f32(float %11, float %.sroa.014.4.vec.extract, float %14)
  %.sroa.0.4.vec.extract = extractelement <2 x float> %3, i64 1
  %16 = tail call float @llvm.fmuladd.f32(float %12, float %.sroa.0.4.vec.extract, float %15)
  %.sroa.016.0.vec.extract = extractelement <2 x float> %0, i64 0
  %.sroa.015.0.vec.extract = extractelement <2 x float> %1, i64 0
  %17 = fmul float %.sroa.015.0.vec.extract, %9
  %18 = tail call float @llvm.fmuladd.f32(float %7, float %.sroa.016.0.vec.extract, float %17)
  %.sroa.014.0.vec.extract = extractelement <2 x float> %2, i64 0
  %19 = tail call float @llvm.fmuladd.f32(float %11, float %.sroa.014.0.vec.extract, float %18)
  %.sroa.0.0.vec.extract = extractelement <2 x float> %3, i64 0
  %20 = tail call float @llvm.fmuladd.f32(float %12, float %.sroa.0.0.vec.extract, float %19)
  %21 = insertelement <2 x float> poison, float %20, i64 0
  %.sroa.017.0.vec.insert = insertelement <2 x float> %21, float %16, i64 1
  ret <2 x float> %.sroa.017.0.vec.insert
}